target datalayout = "e-m:e-p270:32:32-p271:32:32-p272:64:64-i64:64-i128:128-f80:128-n8:16:32:64-S128"
target triple = "x86_64-pc-linux-gnu"

%struct.AVChannelLayout = type { i32, i32, %union.anon, ptr }
%union.anon = type { i64 }
%struct.AVChannelCustom = type { i32, [16 x i8], ptr }

@.str.26 = private unnamed_addr constant [2 x i8] c"@\00", align 1

; Function Attrs: nounwind uwtable
define i32 @av_channel_layout_index_from_string(ptr noundef %0, ptr noundef %1) #0 {
  %3 = alloca i32, align 4
  %4 = alloca ptr, align 8
  %5 = alloca ptr, align 8
  %6 = alloca ptr, align 8
  %7 = alloca i32, align 4
  %8 = alloca [16 x i8], align 16
  %9 = alloca i32, align 4
  %10 = alloca i32, align 4
  store ptr %0, ptr %4, align 8, !tbaa !23
  store ptr %1, ptr %5, align 8, !tbaa !14
  call void @llvm.lifetime.start.p0(i64 8, ptr %6) #11
  call void @llvm.lifetime.start.p0(i64 4, ptr %7) #11
  store i32 -1, ptr %7, align 4, !tbaa !9
  %11 = load ptr, ptr %4, align 8, !tbaa !23
  %12 = getelementptr inbounds nuw %struct.AVChannelLayout, ptr %11, i32 0, i32 0
  %13 = load i32, ptr %12, align 8, !tbaa !30
  switch i32 %13, label %117 [
    i32 2, label %14
    i32 3, label %107
    i32 1, label %107
  ]

14:                                               ; preds = %2
  %15 = load ptr, ptr %5, align 8, !tbaa !14
  %16 = call ptr @strstr(ptr noundef %15, ptr noundef @.str.26) #12
  store ptr %16, ptr %6, align 8, !tbaa !14
  %17 = load ptr, ptr %6, align 8, !tbaa !14
  %18 = icmp ne ptr %17, null
  br i1 %18, label %19, label %59

19:                                               ; preds = %14
  call void @llvm.lifetime.start.p0(i64 16, ptr %8) #11
  %20 = load ptr, ptr %6, align 8, !tbaa !14
  %21 = getelementptr inbounds nuw i8, ptr %20, i32 1
  store ptr %21, ptr %6, align 8, !tbaa !14
  %22 = getelementptr inbounds [16 x i8], ptr %8, i64 0, i64 0
  %23 = load ptr, ptr %5, align 8, !tbaa !14
  %24 = load ptr, ptr %6, align 8, !tbaa !14
  %25 = load ptr, ptr %5, align 8, !tbaa !14
  %26 = ptrtoint ptr %24 to i64
  %27 = ptrtoint ptr %25 to i64
  %28 = sub i64 %26, %27
  %29 = icmp ugt i64 16, %28
  br i1 %29, label %30, label %36

30:                                               ; preds = %19
  %31 = load ptr, ptr %6, align 8, !tbaa !14
  %32 = load ptr, ptr %5, align 8, !tbaa !14
  %33 = ptrtoint ptr %31 to i64
  %34 = ptrtoint ptr %32 to i64
  %35 = sub i64 %33, %34
  br label %37

36:                                               ; preds = %19
  br label %37

37:                                               ; preds = %36, %30
  %38 = phi i64 [ %35, %30 ], [ 16, %36 ]
  %39 = call i64 @av_strlcpy(ptr noundef %22, ptr noundef %23, i64 noundef %38)
  %40 = load ptr, ptr %6, align 8, !tbaa !14
  %41 = load i8, ptr %40, align 1, !tbaa !22
  %42 = icmp ne i8 %41, 0
  br i1 %42, label %44, label %43

43:                                               ; preds = %37
  store ptr null, ptr %6, align 8, !tbaa !14
  br label %44

44:                                               ; preds = %43, %37
  %45 = getelementptr inbounds [16 x i8], ptr %8, i64 0, i64 0
  %46 = call i32 @av_channel_from_string(ptr noundef %45)
  store i32 %46, ptr %7, align 4, !tbaa !9
  %47 = load i32, ptr %7, align 4, !tbaa !9
  %48 = icmp eq i32 %47, -1
  br i1 %48, label %49, label %55

49:                                               ; preds = %44
  %50 = getelementptr inbounds [16 x i8], ptr %8, i64 0, i64 0
  %51 = load i8, ptr %50, align 16, !tbaa !22
  %52 = sext i8 %51 to i32
  %53 = icmp ne i32 %52, 0
  br i1 %53, label %54, label %55

54:                                               ; preds = %49
  store i32 -22, ptr %3, align 4
  store i32 1, ptr %9, align 4
  br label %56

55:                                               ; preds = %49, %44
  store i32 0, ptr %9, align 4
  br label %56

56:                                               ; preds = %55, %54
  call void @llvm.lifetime.end.p0(i64 16, ptr %8) #11
  %57 = load i32, ptr %9, align 4
  switch i32 %57, label %118 [
    i32 0, label %58
  ]

58:                                               ; preds = %56
  br label %59

59:                                               ; preds = %58, %14
  call void @llvm.lifetime.start.p0(i64 4, ptr %10) #11
  store i32 0, ptr %10, align 4, !tbaa !9
  br label %60

60:                                               ; preds = %101, %59
  %61 = load ptr, ptr %6, align 8, !tbaa !14
  %62 = icmp ne ptr %61, null
  br i1 %62, label %63, label %69

63:                                               ; preds = %60
  %64 = load i32, ptr %10, align 4, !tbaa !9
  %65 = load ptr, ptr %4, align 8, !tbaa !23
  %66 = getelementptr inbounds nuw %struct.AVChannelLayout, ptr %65, i32 0, i32 1
  %67 = load i32, ptr %66, align 4, !tbaa !32
  %68 = icmp slt i32 %64, %67
  br label %69

69:                                               ; preds = %63, %60
  %70 = phi i1 [ false, %60 ], [ %68, %63 ]
  br i1 %70, label %72, label %71

71:                                               ; preds = %69
  store i32 3, ptr %9, align 4
  br label %104

72:                                               ; preds = %69
  %73 = load ptr, ptr %6, align 8, !tbaa !14
  %74 = load ptr, ptr %4, align 8, !tbaa !23
  %75 = getelementptr inbounds nuw %struct.AVChannelLayout, ptr %74, i32 0, i32 2
  %76 = load ptr, ptr %75, align 8, !tbaa !22
  %77 = load i32, ptr %10, align 4, !tbaa !9
  %78 = sext i32 %77 to i64
  %79 = getelementptr inbounds %struct.AVChannelCustom, ptr %76, i64 %78
  %80 = getelementptr inbounds nuw %struct.AVChannelCustom, ptr %79, i32 0, i32 1
  %81 = getelementptr inbounds [16 x i8], ptr %80, i64 0, i64 0
  %82 = call i32 @strcmp(ptr noundef %73, ptr noundef %81) #12
  %83 = icmp ne i32 %82, 0
  br i1 %83, label %100, label %84

84:                                               ; preds = %72
  %85 = load i32, ptr %7, align 4, !tbaa !9
  %86 = icmp eq i32 %85, -1
  br i1 %86, label %98, label %87

87:                                               ; preds = %84
  %88 = load i32, ptr %7, align 4, !tbaa !9
  %89 = load ptr, ptr %4, align 8, !tbaa !23
  %90 = getelementptr inbounds nuw %struct.AVChannelLayout, ptr %89, i32 0, i32 2
  %91 = load ptr, ptr %90, align 8, !tbaa !22
  %92 = load i32, ptr %10, align 4, !tbaa !9
  %93 = sext i32 %92 to i64
  %94 = getelementptr inbounds %struct.AVChannelCustom, ptr %91, i64 %93
  %95 = getelementptr inbounds nuw %struct.AVChannelCustom, ptr %94, i32 0, i32 0
  %96 = load i32, ptr %95, align 8, !tbaa !27
  %97 = icmp eq i32 %88, %96
  br i1 %97, label %98, label %100

98:                                               ; preds = %87, %84
  %99 = load i32, ptr %10, align 4, !tbaa !9
  store i32 %99, ptr %3, align 4
  store i32 1, ptr %9, align 4
  br label %104

100:                                              ; preds = %87, %72
  br label %101

101:                                              ; preds = %100
  %102 = load i32, ptr %10, align 4, !tbaa !9
  %103 = add nsw i32 %102, 1
  store i32 %103, ptr %10, align 4, !tbaa !9
  br label %60, !llvm.loop !50

104:                                              ; preds = %98, %71
  call void @llvm.lifetime.end.p0(i64 4, ptr %10) #11
  %105 = load i32, ptr %9, align 4
  switch i32 %105, label %118 [
    i32 3, label %106
  ]

106:                                              ; preds = %104
  br label %107

107:                                              ; preds = %2, %2, %106
  %108 = load ptr, ptr %5, align 8, !tbaa !14
  %109 = call i32 @av_channel_from_string(ptr noundef %108)
  store i32 %109, ptr %7, align 4, !tbaa !9
  %110 = load i32, ptr %7, align 4, !tbaa !9
  %111 = icmp eq i32 %110, -1
  br i1 %111, label %112, label %113

112:                                              ; preds = %107
  store i32 -22, ptr %3, align 4
  store i32 1, ptr %9, align 4
  br label %118

113:                                              ; preds = %107
  %114 = load ptr, ptr %4, align 8, !tbaa !23
  %115 = load i32, ptr %7, align 4, !tbaa !9
  %116 = call i32 @av_channel_layout_index_from_channel(ptr noundef %114, i32 noundef %115)
  store i32 %116, ptr %3, align 4
  store i32 1, ptr %9, align 4
  br label %118

117:                                              ; preds = %2
  store i32 -22, ptr %3, align 4
  store i32 1, ptr %9, align 4
  br label %118

118:                                              ; preds = %117, %113, %112, %104, %56
  call void @llvm.lifetime.end.p0(i64 4, ptr %7) #11
  call void @llvm.lifetime.end.p0(i64 8, ptr %6) #11
  %119 = load i32, ptr %3, align 4
  ret i32 %119
}