; Function Attrs: nounwind uwtable
define i32 @av_channel_layout_index_from_string(ptr noundef readonly captures(none) %0, ptr noundef %1) local_unnamed_addr #0 {
  %3 = alloca [16 x i8], align 16
  %4 = load i32, ptr %0, align 8, !tbaa !18
  switch i32 %4, label %.critedge [
    i32 2, label %5
    i32 3, label %.critedge.thread
    i32 1, label %.critedge.thread
  ]

5:                                                ; preds = %2
  %strchr = tail call ptr @strchr(ptr nonnull dereferenceable(1) %1, i32 64)
  %.not = icmp eq ptr %strchr, null
  br i1 %.not, label %.critedge.thread, label %6

6:                                                ; preds = %5
  call void @llvm.lifetime.start.p0(i64 16, ptr nonnull %3) #16
  %7 = getelementptr inbounds nuw i8, ptr %strchr, i64 1
  %8 = ptrtoint ptr %7 to i64
  %9 = ptrtoint ptr %1 to i64
  %10 = sub i64 %8, %9
  %11 = tail call i64 @llvm.umin.i64(i64 %10, i64 16)
  %12 = call i64 @av_strlcpy(ptr noundef nonnull %3, ptr noundef nonnull %1, i64 noundef %11) #16
  %13 = load i8, ptr %7, align 1, !tbaa !17
  %14 = call i32 @av_channel_from_string(ptr noundef nonnull %3)
  %.034.fr = freeze i32 %14
  %15 = icmp ne i32 %.034.fr, -1
  %16 = load i8, ptr %3, align 16
  %17 = icmp eq i8 %16, 0
  %or.cond.not = select i1 %15, i1 true, i1 %17
  call void @llvm.lifetime.end.p0(i64 16, ptr nonnull %3) #16
  br i1 %or.cond.not, label %18, label %.critedge

18:                                               ; preds = %6
  %.not41 = icmp eq i8 %13, 0
  br i1 %.not41, label %.critedge.thread, label %.lr.ph

.lr.ph:                                           ; preds = %18
  %19 = getelementptr inbounds nuw i8, ptr %0, i64 4
  %20 = load i32, ptr %19, align 4, !tbaa !20
  %21 = getelementptr inbounds nuw i8, ptr %0, i64 8
  %22 = icmp eq i32 %.034.fr, -1
  %23 = icmp sgt i32 %20, 0
  br i1 %22, label %.lr.ph.split.us.split, label %.lr.ph.split.split

.lr.ph.split.us.split:                            ; preds = %.lr.ph
  br i1 %23, label %.lr.ph61, label %.critedge.thread

.lr.ph61:                                         ; preds = %.lr.ph.split.us.split
  %24 = load ptr, ptr %21, align 8, !tbaa !17
  %invariant.gep = getelementptr inbounds nuw i8, ptr %24, i64 4
  %wide.trip.count70 = zext nneg i32 %20 to i64
  br label %25

25:                                               ; preds = %.lr.ph61, %27
  %indvars.iv67 = phi i64 [ 0, %.lr.ph61 ], [ %indvars.iv.next68, %27 ]
  %gep = getelementptr inbounds nuw %struct.AVChannelCustom, ptr %invariant.gep, i64 %indvars.iv67
  %26 = call i32 @strcmp(ptr noundef nonnull dereferenceable(1) %7, ptr noundef nonnull dereferenceable(1) %gep) #17
  %.not45.us = icmp eq i32 %26, 0
  br i1 %.not45.us, label %.critedge.loopexit, label %27

27:                                               ; preds = %25
  %indvars.iv.next68 = add nuw nsw i64 %indvars.iv67, 1
  %exitcond71.not = icmp eq i64 %indvars.iv.next68, %wide.trip.count70
  br i1 %exitcond71.not, label %.critedge.thread, label %25

.lr.ph.split.split:                               ; preds = %.lr.ph
  br i1 %23, label %.lr.ph58, label %.critedge.thread

.lr.ph58:                                         ; preds = %.lr.ph.split.split
  %28 = load ptr, ptr %21, align 8, !tbaa !17
  %wide.trip.count = zext nneg i32 %20 to i64
  br label %29

29:                                               ; preds = %.lr.ph58, %36
  %indvars.iv = phi i64 [ 0, %.lr.ph58 ], [ %indvars.iv.next, %36 ]
  %30 = getelementptr inbounds nuw %struct.AVChannelCustom, ptr %28, i64 %indvars.iv
  %31 = getelementptr inbounds nuw i8, ptr %30, i64 4
  %32 = call i32 @strcmp(ptr noundef nonnull dereferenceable(1) %7, ptr noundef nonnull dereferenceable(1) %31) #17
  %.not45 = icmp eq i32 %32, 0
  br i1 %.not45, label %33, label %36

33:                                               ; preds = %29
  %34 = load i32, ptr %30, align 8, !tbaa !21
  %35 = icmp eq i32 %.034.fr, %34
  br i1 %35, label %.critedge.loopexit62, label %36

36:                                               ; preds = %29, %33
  %indvars.iv.next = add nuw nsw i64 %indvars.iv, 1
  %exitcond.not = icmp eq i64 %indvars.iv.next, %wide.trip.count
  br i1 %exitcond.not, label %.critedge.thread, label %29

.critedge.thread:                                 ; preds = %36, %27, %5, %18, %.lr.ph.split.split, %.lr.ph.split.us.split, %2, %2
  %37 = call i32 @av_channel_from_string(ptr noundef %1)
  %38 = icmp eq i32 %37, -1
  br i1 %38, label %.critedge, label %39

39:                                               ; preds = %.critedge.thread
  %40 = call i32 @av_channel_layout_index_from_channel(ptr noundef nonnull %0, i32 noundef %37)
  br label %.critedge

.critedge.loopexit:                               ; preds = %25
  %41 = trunc nuw nsw i64 %indvars.iv67 to i32
  br label %.critedge

.critedge.loopexit62:                             ; preds = %33
  %42 = trunc nuw nsw i64 %indvars.iv to i32
  br label %.critedge

.critedge:                                        ; preds = %.critedge.loopexit62, %.critedge.loopexit, %2, %.critedge.thread, %6, %39
  %.2 = phi i32 [ %40, %39 ], [ -22, %6 ], [ -22, %.critedge.thread ], [ -22, %2 ], [ %41, %.critedge.loopexit ], [ %42, %.critedge.loopexit62 ]
  ret i32 %.2
}